; ModuleID = 'source-C-CXX/39/2797.c'
source_filename = "source-C-CXX/39/2797.c"
target datalayout = "e-m:e-p270:32:32-p271:32:32-p272:64:64-i64:64-f80:128-n8:16:32:64-S128"
target triple = "x86_64-pc-linux-gnu"

@.str = private unnamed_addr constant [11 x i8] c"%f%f%f%f%f\00", align 1
@.str.1 = private unnamed_addr constant [14 x i8] c"Invalid input\00", align 1
@.str.2 = private unnamed_addr constant [5 x i8] c"%.4f\00", align 1

; Function Attrs: nofree nounwind sspstrong uwtable
define dso_local i32 @main() local_unnamed_addr #0 {
  %1 = alloca float, align 4
  %2 = alloca float, align 4
  %3 = alloca float, align 4
  %4 = alloca float, align 4
  %5 = alloca float, align 4
  %6 = bitcast float* %1 to i8*
  call void @llvm.lifetime.start.p0i8(i64 4, i8* nonnull %6) #5
  %7 = bitcast float* %2 to i8*
  call void @llvm.lifetime.start.p0i8(i64 4, i8* nonnull %7) #5
  %8 = bitcast float* %3 to i8*
  call void @llvm.lifetime.start.p0i8(i64 4, i8* nonnull %8) #5
  %9 = bitcast float* %4 to i8*
  call void @llvm.lifetime.start.p0i8(i64 4, i8* nonnull %9) #5
  %10 = bitcast float* %5 to i8*
  call void @llvm.lifetime.start.p0i8(i64 4, i8* nonnull %10) #5
  %11 = call i32 (i8*, ...) @__isoc99_scanf(i8* getelementptr inbounds ([11 x i8], [11 x i8]* @.str, i64 0, i64 0), float* nonnull %1, float* nonnull %2, float* nonnull %3, float* nonnull %4, float* nonnull %5)
  %12 = load float, float* %1, align 4, !tbaa !5
  %13 = load float, float* %2, align 4, !tbaa !5
  %14 = load float, float* %3, align 4, !tbaa !5
  %15 = load float, float* %4, align 4, !tbaa !5
  %16 = load float, float* %5, align 4, !tbaa !5
  %17 = fdiv float %16, 3.600000e+02
  %18 = fpext float %17 to double
  %19 = fmul double %18, 0x400921FB4D12D84A
  %20 = fadd float %12, %13
  %21 = fadd float %20, %14
  %22 = fadd float %21, %15
  %23 = fmul float %22, 5.000000e-01
  %24 = fsub float %23, %12
  %25 = fsub float %23, %13
  %26 = fmul float %24, %25
  %27 = fsub float %23, %14
  %28 = fmul float %27, %26
  %29 = fsub float %23, %15
  %30 = fmul float %29, %28
  %31 = fpext float %30 to double
  %32 = fmul float %12, %13
  %33 = fmul float %32, %14
  %34 = fmul float %33, %15
  %35 = fpext float %34 to double
  %36 = call double @cos(double %19) #5
  %37 = fmul double %36, %35
  %38 = call double @cos(double %19) #5
  %39 = fmul double %37, %38
  %40 = fsub double %31, %39
  %41 = fptrunc double %40 to float
  %42 = fcmp olt float %41, 0.000000e+00
  br i1 %42, label %52, label %43

43:                                               ; preds = %0
  %44 = call double @cos(double %19) #5
  %45 = fmul double %44, %35
  %46 = call double @cos(double %19) #5
  %47 = fmul double %45, %46
  %48 = fsub double %31, %47
  %49 = call double @sqrt(double %48) #5
  %50 = fptrunc double %49 to float
  %51 = fcmp oeq float %50, -1.000000e+00
  br i1 %51, label %52, label %54

52:                                               ; preds = %0, %43
  %53 = call i32 (i8*, ...) @printf(i8* nonnull dereferenceable(1) getelementptr inbounds ([14 x i8], [14 x i8]* @.str.1, i64 0, i64 0))
  br label %57

54:                                               ; preds = %43
  %55 = fpext float %50 to double
  %56 = call i32 (i8*, ...) @printf(i8* nonnull dereferenceable(1) getelementptr inbounds ([5 x i8], [5 x i8]* @.str.2, i64 0, i64 0), double %55)
  br label %57

57:                                               ; preds = %54, %52
  call void @llvm.lifetime.end.p0i8(i64 4, i8* nonnull %10) #5
  call void @llvm.lifetime.end.p0i8(i64 4, i8* nonnull %9) #5
  call void @llvm.lifetime.end.p0i8(i64 4, i8* nonnull %8) #5
  call void @llvm.lifetime.end.p0i8(i64 4, i8* nonnull %7) #5
  call void @llvm.lifetime.end.p0i8(i64 4, i8* nonnull %6) #5
  ret i32 0
}

; Function Attrs: argmemonly mustprogress nofree nosync nounwind willreturn
declare void @llvm.lifetime.start.p0i8(i64 immarg, i8* nocapture) #1

; Function Attrs: nofree nounwind
declare noundef i32 @__isoc99_scanf(i8* nocapture noundef readonly, ...) local_unnamed_addr #2

; Function Attrs: mustprogress nofree nounwind sspstrong uwtable willreturn
define dso_local float @function(float %0, float %1, float %2, float %3, float %4) local_unnamed_addr #3 {
  %6 = fdiv float %4, 3.600000e+02
  %7 = fpext float %6 to double
  %8 = fmul double %7, 0x400921FB4D12D84A
  %9 = fadd float %0, %1
  %10 = fadd float %9, %2
  %11 = fadd float %10, %3
  %12 = fmul float %11, 5.000000e-01
  %13 = fsub float %12, %0
  %14 = fsub float %12, %1
  %15 = fmul float %13, %14
  %16 = fsub float %12, %2
  %17 = fmul float %16, %15
  %18 = fsub float %12, %3
  %19 = fmul float %18, %17
  %20 = fpext float %19 to double
  %21 = fmul float %0, %1
  %22 = fmul float %21, %2
  %23 = fmul float %22, %3
  %24 = fpext float %23 to double
  %25 = tail call double @cos(double %8) #5
  %26 = fmul double %25, %24
  %27 = tail call double @cos(double %8) #5
  %28 = fmul double %26, %27
  %29 = fsub double %20, %28
  %30 = fptrunc double %29 to float
  %31 = fcmp olt float %30, 0.000000e+00
  br i1 %31, label %40, label %32

32:                                               ; preds = %5
  %33 = tail call double @cos(double %8) #5
  %34 = fmul double %33, %24
  %35 = tail call double @cos(double %8) #5
  %36 = fmul double %34, %35
  %37 = fsub double %20, %36
  %38 = tail call double @sqrt(double %37) #5
  %39 = fptrunc double %38 to float
  br label %40

40:                                               ; preds = %5, %32
  %41 = phi float [ %39, %32 ], [ -1.000000e+00, %5 ]
  ret float %41
}

; Function Attrs: nofree nounwind
declare noundef i32 @printf(i8* nocapture noundef readonly, ...) local_unnamed_addr #2

; Function Attrs: argmemonly mustprogress nofree nosync nounwind willreturn
declare void @llvm.lifetime.end.p0i8(i64 immarg, i8* nocapture) #1

; Function Attrs: mustprogress nofree nounwind willreturn
declare double @cos(double) local_unnamed_addr #4

; Function Attrs: mustprogress nofree nounwind willreturn
declare double @sqrt(double) local_unnamed_addr #4


!llvm.module.flags = !{!0, !1, !2, !3}
!llvm.ident = !{!4}

!0 = !{i32 1, !"wchar_size", i32 4}
!1 = !{i32 7, !"PIC Level", i32 2}
!2 = !{i32 7, !"PIE Level", i32 2}
!3 = !{i32 7, !"uwtable", i32 1}
!4 = !{!"clang version 13.0.0"}
!5 = !{!6, !6, i64 0}
!6 = !{!"float", !7, i64 0}
!7 = !{!"omnipotent char", !8, i64 0}
!8 = !{!"Simple C/C++ TBAA"}
